target datalayout = "e-m:e-p270:32:32-p271:32:32-p272:64:64-i64:64-i128:128-f80:128-n8:16:32:64-S128"
target triple = "x86_64-pc-linux-gnu"

%"class.llvm::StringRef" = type { ptr, i64 }
%"class.llvm::Bitset" = type { %"struct.std::array" }
%"struct.std::array" = type { [2 x i64] }
%"union.std::_Optional_payload_base<llvm::StringRef>::_Storage" = type { %"class.llvm::StringRef" }
%"struct.llvm::AArch64::ArchInfo" = type { %"class.llvm::VersionTuple", i32, %"class.llvm::StringRef", %"class.llvm::StringRef", %"class.llvm::Bitset" }
%"class.llvm::VersionTuple" = type { i64, i64 }
%"struct.llvm::AArch64::ExtensionInfo" = type { %"class.llvm::StringRef", %"class.std::optional.17", i32, %"class.llvm::StringRef", %"class.llvm::StringRef", %"class.llvm::StringRef", %"class.llvm::StringRef" }
%"class.std::optional.17" = type { %"struct.std::_Optional_base.18" }
%"struct.std::_Optional_base.18" = type { %"struct.std::_Optional_payload.20" }
%"struct.std::_Optional_payload.20" = type { %"struct.std::_Optional_payload_base.base.22", [7 x i8] }
%"struct.std::_Optional_payload_base.base.22" = type <{ %"union.std::_Optional_payload_base<llvm::StringRef>::_Storage", i8 }>
%"struct.llvm::AArch64::ExtensionSet" = type { %"class.llvm::Bitset", %"class.llvm::Bitset", ptr }

; Function Attrs: mustprogress nounwind uwtable
define linkonce_odr hidden noundef nonnull align 8 dereferenceable(8) ptr @_ZNSt14__array_traitsImLm2EE6_S_refERA2_Kmm(ptr noundef nonnull align 8 dereferenceable(16) %0, i64 noundef %1) #0 comdat align 2 {
  %3 = alloca ptr, align 8
  %4 = alloca i64, align 8
  store ptr %0, ptr %3, align 8
  store i64 %1, ptr %4, align 8
  %5 = load ptr, ptr %3, align 8
  %6 = load i64, ptr %4, align 8
  %7 = getelementptr inbounds [2 x i64], ptr %5, i64 0, i64 %6
  ret ptr %7
}

; Function Attrs: mustprogress nounwind uwtable
define linkonce_odr hidden noundef nonnull align 8 dereferenceable(8) ptr @_ZNKSt5arrayImLm2EEixEm(ptr noundef nonnull align 8 dereferenceable(16) %0, i64 noundef %1) #0 comdat align 2 {
  %3 = alloca ptr, align 8
  %4 = alloca i64, align 8
  store ptr %0, ptr %3, align 8
  store i64 %1, ptr %4, align 8
  %5 = load ptr, ptr %3, align 8
  %6 = getelementptr inbounds nuw %"struct.std::array", ptr %5, i32 0, i32 0
  %7 = load i64, ptr %4, align 8
  %8 = call noundef nonnull align 8 dereferenceable(8) ptr @_ZNSt14__array_traitsImLm2EE6_S_refERA2_Kmm(ptr noundef nonnull align 8 dereferenceable(16) %6, i64 noundef %7) #1
  ret ptr %8
}

; Function Attrs: mustprogress nounwind uwtable
define linkonce_odr hidden noundef zeroext i1 @_ZNK4llvm6BitsetILj112EEixEj(ptr noundef nonnull align 8 dereferenceable(16) %0, i32 noundef %1) #0 comdat align 2 {
  %3 = alloca ptr, align 8
  %4 = alloca i32, align 4
  %5 = alloca i64, align 8
  store ptr %0, ptr %3, align 8
  store i32 %1, ptr %4, align 4
  %6 = load ptr, ptr %3, align 8
  %7 = load i32, ptr %4, align 4
  %8 = urem i32 %7, 64
  %9 = zext i32 %8 to i64
  %10 = shl i64 1, %9
  store i64 %10, ptr %5, align 8
  %11 = getelementptr inbounds nuw %"class.llvm::Bitset", ptr %6, i32 0, i32 0
  %12 = load i32, ptr %4, align 4
  %13 = udiv i32 %12, 64
  %14 = zext i32 %13 to i64
  %15 = call noundef nonnull align 8 dereferenceable(8) ptr @_ZNKSt5arrayImLm2EEixEm(ptr noundef nonnull align 8 dereferenceable(16) %11, i64 noundef %14) #1
  %16 = load i64, ptr %15, align 8
  %17 = load i64, ptr %5, align 8
  %18 = and i64 %16, %17
  %19 = icmp ne i64 %18, 0
  ret i1 %19
}

; Function Attrs: mustprogress nounwind uwtable
define linkonce_odr hidden noundef zeroext i1 @_ZNK4llvm6BitsetILj112EE4testEj(ptr noundef nonnull align 8 dereferenceable(16) %0, i32 noundef %1) #0 comdat align 2 {
  %3 = alloca ptr, align 8
  %4 = alloca i32, align 4
  store ptr %0, ptr %3, align 8
  store i32 %1, ptr %4, align 4
  %5 = load ptr, ptr %3, align 8
  %6 = load i32, ptr %4, align 4
  %7 = call noundef zeroext i1 @_ZNK4llvm6BitsetILj112EEixEj(ptr noundef nonnull align 8 dereferenceable(16) %5, i32 noundef %6)
  ret i1 %7
}

; Function Attrs: mustprogress nounwind uwtable
define dso_local void @_ZN4llvm7AArch6412ExtensionSet15addArchDefaultsERKNS0_8ArchInfoE(ptr noundef nonnull align 8 dereferenceable(40) %0, ptr noundef nonnull align 8 dereferenceable(72) %1) #0 align 2 {
  %3 = alloca ptr, align 8
  %4 = alloca ptr, align 8
  %5 = alloca ptr, align 8
  %6 = alloca ptr, align 8
  %7 = alloca ptr, align 8
  %8 = alloca ptr, align 8
  store ptr %0, ptr %3, align 8
  store ptr %1, ptr %4, align 8
  %9 = load ptr, ptr %3, align 8
  br label %10

10:                                               ; preds = %2
  br label %11

11:                                               ; preds = %10
  %12 = load ptr, ptr %4, align 8
  %13 = getelementptr inbounds nuw %"struct.llvm::AArch64::ExtensionSet", ptr %9, i32 0, i32 2
  store ptr %12, ptr %13, align 8
  store ptr @_ZN4llvm7AArch6410ExtensionsE, ptr %5, align 8
  store ptr @_ZN4llvm7AArch6410ExtensionsE, ptr %6, align 8
  store ptr getelementptr inbounds (%"struct.llvm::AArch64::ExtensionInfo", ptr @_ZN4llvm7AArch6410ExtensionsE, i64 112), ptr %7, align 8
  br label %14

14:                                               ; preds = %31, %11
  %15 = load ptr, ptr %6, align 8
  %16 = load ptr, ptr %7, align 8
  %17 = icmp ne ptr %15, %16
  br i1 %17, label %18, label %34

18:                                               ; preds = %14
  %19 = load ptr, ptr %6, align 8
  store ptr %19, ptr %8, align 8
  %20 = load ptr, ptr %4, align 8
  %21 = getelementptr inbounds nuw %"struct.llvm::AArch64::ArchInfo", ptr %20, i32 0, i32 4
  %22 = load ptr, ptr %8, align 8
  %23 = getelementptr inbounds nuw %"struct.llvm::AArch64::ExtensionInfo", ptr %22, i32 0, i32 2
  %24 = load i32, ptr %23, align 8
  %25 = call noundef zeroext i1 @_ZNK4llvm6BitsetILj112EE4testEj(ptr noundef nonnull align 8 dereferenceable(16) %21, i32 noundef %24)
  br i1 %25, label %26, label %30

26:                                               ; preds = %18
  %27 = load ptr, ptr %8, align 8
  %28 = getelementptr inbounds nuw %"struct.llvm::AArch64::ExtensionInfo", ptr %27, i32 0, i32 2
  %29 = load i32, ptr %28, align 8
  call void @_ZN4llvm7AArch6412ExtensionSet6enableENS0_11ArchExtKindE(ptr noundef nonnull align 8 dereferenceable(40) %9, i32 noundef %29)
  br label %30

30:                                               ; preds = %26, %18
  br label %31

31:                                               ; preds = %30
  %32 = load ptr, ptr %6, align 8
  %33 = getelementptr inbounds %"struct.llvm::AArch64::ExtensionInfo", ptr %32, i32 1
  store ptr %33, ptr %6, align 8
  br label %14

34:                                               ; preds = %14
  ret void
}