; Function Attrs: mustprogress nounwind uwtable
define dso_local void @_ZN4llvm7AArch6412ExtensionSet15addArchDefaultsERKNS0_8ArchInfoE(ptr noundef nonnull align 8 dereferenceable(40) initializes((32, 40)) %0, ptr noundef nonnull align 8 dereferenceable(72) %1) local_unnamed_addr #0 align 2 {
  %3 = getelementptr inbounds nuw i8, ptr %0, i64 32
  store ptr %1, ptr %3, align 8
  %4 = getelementptr inbounds nuw i8, ptr %1, i64 56
  br label %5

5:                                                ; preds = %2, %16
  %.0.idx10 = phi i64 [ 0, %2 ], [ %.0.add, %16 ]
  %gep = getelementptr inbounds nuw i8, ptr getelementptr inbounds nuw (i8, ptr @_ZN4llvm7AArch6410ExtensionsE, i64 40), i64 %.0.idx10
  %6 = load i32, ptr %gep, align 8
  %7 = and i32 %6, 63
  %8 = zext nneg i32 %7 to i64
  %9 = shl nuw i64 1, %8
  %10 = lshr i32 %6, 6
  %11 = zext nneg i32 %10 to i64
  %12 = getelementptr inbounds nuw [2 x i64], ptr %4, i64 0, i64 %11
  %13 = load i64, ptr %12, align 8
  %14 = and i64 %9, %13
  %.not9 = icmp eq i64 %14, 0
  br i1 %.not9, label %16, label %15

15:                                               ; preds = %5
  tail call void @_ZN4llvm7AArch6412ExtensionSet6enableENS0_11ArchExtKindE(ptr noundef nonnull align 8 dereferenceable(40) %0, i32 noundef %6)
  br label %16

16:                                               ; preds = %5, %15
  %.0.add = add nuw nsw i64 %.0.idx10, 112
  %.not = icmp eq i64 %.0.add, 12544
  br i1 %.not, label %17, label %5

17:                                               ; preds = %16
  ret void
}